target datalayout = "e-m:e-p270:32:32-p271:32:32-p272:64:64-i64:64-i128:128-f80:128-n8:16:32:64-S128"
target triple = "x86_64-pc-linux-gnu"

%struct.PJconsts = type { ptr, ptr, ptr, ptr, ptr, ptr, ptr, ptr, ptr, ptr, ptr, ptr, i32, ptr, ptr, ptr, ptr, ptr, ptr, ptr, ptr, double, double, double, double, double, double, double, double, double, double, double, double, double, double, double, double, double, double, double, double, double, double, i32, i32, i32, i32, i32, i32, i32, i32, i32, i32, i32, ptr, ptr, ptr, ptr, ptr, ptr, double, double, double, double, double, double, double, double, double, double, double, i32, [7 x double], i32, ptr, ptr, double, double, i32, [4 x i8], %"class.std::shared_ptr", i8, double, i8, %"class.std::__cxx11::basic_string", %"class.std::__cxx11::basic_string", %"class.std::__cxx11::basic_string", i8, %"class.std::vector", i32, %"class.std::vector.3", i32, i8, i8, i8, ptr }
%"class.std::shared_ptr" = type { %"class.std::__shared_ptr" }
%"class.std::__shared_ptr" = type { ptr, %"class.std::__shared_count" }
%"class.std::__shared_count" = type { ptr }
%"class.std::__cxx11::basic_string" = type { %"struct.std::__cxx11::basic_string<char>::_Alloc_hider", i64, %union.anon }
%"struct.std::__cxx11::basic_string<char>::_Alloc_hider" = type { ptr }
%union.anon = type { i64, [8 x i8] }
%"class.std::vector" = type { %"struct.std::_Vector_base" }
%"struct.std::_Vector_base" = type { %"struct.std::_Vector_base<osgeo::proj::operation::GridDescription, std::allocator<osgeo::proj::operation::GridDescription>>::_Vector_impl" }
%"struct.std::_Vector_base<osgeo::proj::operation::GridDescription, std::allocator<osgeo::proj::operation::GridDescription>>::_Vector_impl" = type { %"struct.std::_Vector_base<osgeo::proj::operation::GridDescription, std::allocator<osgeo::proj::operation::GridDescription>>::_Vector_impl_data" }
%"struct.std::_Vector_base<osgeo::proj::operation::GridDescription, std::allocator<osgeo::proj::operation::GridDescription>>::_Vector_impl_data" = type { ptr, ptr, ptr }
%"class.std::vector.3" = type { %"struct.std::_Vector_base.4" }
%"struct.std::_Vector_base.4" = type { %"struct.std::_Vector_base<PJCoordOperation, std::allocator<PJCoordOperation>>::_Vector_impl" }
%"struct.std::_Vector_base<PJCoordOperation, std::allocator<PJCoordOperation>>::_Vector_impl" = type { %"struct.std::_Vector_base<PJCoordOperation, std::allocator<PJCoordOperation>>::_Vector_impl_data" }
%"struct.std::_Vector_base<PJCoordOperation, std::allocator<PJCoordOperation>>::_Vector_impl_data" = type { ptr, ptr, ptr }
%union.PROJVALUE = type { double }
%"struct.(anonymous namespace)::pj_loxim_data" = type { double, double, double }

@.str.1 = private unnamed_addr constant [7 x i8] c"rlat_1\00", align 1
@.str.2 = private unnamed_addr constant [50 x i8] c"Invalid value for lat_1: |lat_1| should be < 90\C2\B0\00", align 1

; Function Attrs: mustprogress uwtable
define hidden noundef ptr @_Z34pj_projection_specific_setup_loximP8PJconsts(ptr noundef %0) #0 {
  %2 = alloca ptr, align 8
  %3 = alloca ptr, align 8
  %4 = alloca ptr, align 8
  %5 = alloca i32, align 4
  %6 = alloca %union.PROJVALUE, align 8
  store ptr %0, ptr %3, align 8, !tbaa !3
  call void @llvm.lifetime.start.p0(i64 8, ptr %4) #8
  %7 = call noalias ptr @calloc(i64 noundef 1, i64 noundef 24) #9
  store ptr %7, ptr %4, align 8, !tbaa !41
  %8 = load ptr, ptr %4, align 8, !tbaa !41
  %9 = icmp eq ptr null, %8
  br i1 %9, label %10, label %13

10:                                               ; preds = %1
  %11 = load ptr, ptr %3, align 8, !tbaa !3
  %12 = call noundef ptr @_Z21pj_default_destructorP8PJconstsi(ptr noundef %11, i32 noundef 4096)
  store ptr %12, ptr %2, align 8
  store i32 1, ptr %5, align 4
  br label %57

13:                                               ; preds = %1
  %14 = load ptr, ptr %4, align 8, !tbaa !41
  %15 = load ptr, ptr %3, align 8, !tbaa !3
  %16 = getelementptr inbounds nuw %struct.PJconsts, ptr %15, i32 0, i32 11
  store ptr %14, ptr %16, align 8, !tbaa !43
  call void @llvm.lifetime.start.p0(i64 8, ptr %6) #8
  %17 = load ptr, ptr %3, align 8, !tbaa !3
  %18 = getelementptr inbounds nuw %struct.PJconsts, ptr %17, i32 0, i32 0
  %19 = load ptr, ptr %18, align 8, !tbaa !44
  %20 = load ptr, ptr %3, align 8, !tbaa !3
  %21 = getelementptr inbounds nuw %struct.PJconsts, ptr %20, i32 0, i32 3
  %22 = load ptr, ptr %21, align 8, !tbaa !45
  %23 = call i64 @_Z8pj_paramP6pj_ctxP8ARG_listPKc(ptr noundef %19, ptr noundef %22, ptr noundef @.str.1)
  %24 = getelementptr inbounds nuw %union.PROJVALUE, ptr %6, i32 0, i32 0
  store i64 %23, ptr %24, align 8
  %25 = load double, ptr %6, align 8, !tbaa !46
  %26 = load ptr, ptr %4, align 8, !tbaa !41
  %27 = getelementptr inbounds nuw %"struct.(anonymous namespace)::pj_loxim_data", ptr %26, i32 0, i32 0
  store double %25, ptr %27, align 8, !tbaa !47
  call void @llvm.lifetime.end.p0(i64 8, ptr %6) #8
  %28 = load ptr, ptr %4, align 8, !tbaa !41
  %29 = getelementptr inbounds nuw %"struct.(anonymous namespace)::pj_loxim_data", ptr %28, i32 0, i32 0
  %30 = load double, ptr %29, align 8, !tbaa !47
  %31 = call double @cos(double noundef %30) #8, !tbaa !49
  %32 = load ptr, ptr %4, align 8, !tbaa !41
  %33 = getelementptr inbounds nuw %"struct.(anonymous namespace)::pj_loxim_data", ptr %32, i32 0, i32 1
  store double %31, ptr %33, align 8, !tbaa !50
  %34 = load ptr, ptr %4, align 8, !tbaa !41
  %35 = getelementptr inbounds nuw %"struct.(anonymous namespace)::pj_loxim_data", ptr %34, i32 0, i32 1
  %36 = load double, ptr %35, align 8, !tbaa !50
  %37 = fcmp olt double %36, 1.000000e-08
  br i1 %37, label %38, label %42

38:                                               ; preds = %13
  %39 = load ptr, ptr %3, align 8, !tbaa !3
  call void (ptr, ptr, ...) @_Z14proj_log_errorPK8PJconstsPKcz(ptr noundef %39, ptr noundef @.str.2)
  %40 = load ptr, ptr %3, align 8, !tbaa !3
  %41 = call noundef ptr @_Z21pj_default_destructorP8PJconstsi(ptr noundef %40, i32 noundef 1027)
  store ptr %41, ptr %2, align 8
  store i32 1, ptr %5, align 4
  br label %57

42:                                               ; preds = %13
  %43 = load ptr, ptr %4, align 8, !tbaa !41
  %44 = getelementptr inbounds nuw %"struct.(anonymous namespace)::pj_loxim_data", ptr %43, i32 0, i32 0
  %45 = load double, ptr %44, align 8, !tbaa !47
  %46 = call double @llvm.fmuladd.f64(double 5.000000e-01, double %45, double 0x3FE921FB54442D18)
  %47 = call double @tan(double noundef %46) #8, !tbaa !49
  %48 = load ptr, ptr %4, align 8, !tbaa !41
  %49 = getelementptr inbounds nuw %"struct.(anonymous namespace)::pj_loxim_data", ptr %48, i32 0, i32 2
  store double %47, ptr %49, align 8, !tbaa !51
  %50 = load ptr, ptr %3, align 8, !tbaa !3
  %51 = getelementptr inbounds nuw %struct.PJconsts, ptr %50, i32 0, i32 14
  store ptr @_ZL15loxim_s_inverse5PJ_XYP8PJconsts, ptr %51, align 8, !tbaa !52
  %52 = load ptr, ptr %3, align 8, !tbaa !3
  %53 = getelementptr inbounds nuw %struct.PJconsts, ptr %52, i32 0, i32 13
  store ptr @_ZL15loxim_s_forward5PJ_LPP8PJconsts, ptr %53, align 8, !tbaa !53
  %54 = load ptr, ptr %3, align 8, !tbaa !3
  %55 = getelementptr inbounds nuw %struct.PJconsts, ptr %54, i32 0, i32 27
  store double 0.000000e+00, ptr %55, align 8, !tbaa !54
  %56 = load ptr, ptr %3, align 8, !tbaa !3
  store ptr %56, ptr %2, align 8
  store i32 1, ptr %5, align 4
  br label %57

57:                                               ; preds = %42, %38, %10
  call void @llvm.lifetime.end.p0(i64 8, ptr %4) #8
  %58 = load ptr, ptr %2, align 8
  ret ptr %58
}