; Function Attrs: mustprogress uwtable
define hidden noundef ptr @_Z34pj_projection_specific_setup_loximP8PJconsts(ptr noundef %0) local_unnamed_addr #0 {
  %2 = tail call noalias dereferenceable_or_null(24) ptr @calloc(i64 noundef 1, i64 noundef 24) #6
  %3 = icmp eq ptr %2, null
  br i1 %3, label %4, label %6

4:                                                ; preds = %1
  %5 = tail call noundef ptr @_Z21pj_default_destructorP8PJconstsi(ptr noundef %0, i32 noundef 4096)
  br label %25

6:                                                ; preds = %1
  %7 = getelementptr inbounds nuw i8, ptr %0, i64 88
  store ptr %2, ptr %7, align 8, !tbaa !40
  %8 = load ptr, ptr %0, align 8, !tbaa !41
  %9 = getelementptr inbounds nuw i8, ptr %0, i64 24
  %10 = load ptr, ptr %9, align 8, !tbaa !42
  %11 = tail call i64 @_Z8pj_paramP6pj_ctxP8ARG_listPKc(ptr noundef %8, ptr noundef %10, ptr noundef nonnull @.str.1)
  %12 = bitcast i64 %11 to double
  store i64 %11, ptr %2, align 8, !tbaa !43
  %13 = tail call double @cos(double noundef %12) #7, !tbaa !45
  %14 = getelementptr inbounds nuw i8, ptr %2, i64 8
  store double %13, ptr %14, align 8, !tbaa !46
  %15 = fcmp olt double %13, 1.000000e-08
  br i1 %15, label %16, label %18

16:                                               ; preds = %6
  tail call void (ptr, ptr, ...) @_Z14proj_log_errorPK8PJconstsPKcz(ptr noundef nonnull %0, ptr noundef nonnull @.str.2)
  %17 = tail call noundef ptr @_Z21pj_default_destructorP8PJconstsi(ptr noundef nonnull %0, i32 noundef 1027)
  br label %25

18:                                               ; preds = %6
  %19 = tail call double @llvm.fmuladd.f64(double %12, double 5.000000e-01, double 0x3FE921FB54442D18)
  %20 = tail call double @tan(double noundef %19) #7, !tbaa !45
  %21 = getelementptr inbounds nuw i8, ptr %2, i64 16
  store double %20, ptr %21, align 8, !tbaa !47
  %22 = getelementptr inbounds nuw i8, ptr %0, i64 112
  store ptr @_ZL15loxim_s_inverse5PJ_XYP8PJconsts, ptr %22, align 8, !tbaa !48
  %23 = getelementptr inbounds nuw i8, ptr %0, i64 104
  store ptr @_ZL15loxim_s_forward5PJ_LPP8PJconsts, ptr %23, align 8, !tbaa !49
  %24 = getelementptr inbounds nuw i8, ptr %0, i64 216
  store double 0.000000e+00, ptr %24, align 8, !tbaa !50
  br label %25

25:                                               ; preds = %18, %16, %4
  %.0 = phi ptr [ %5, %4 ], [ %17, %16 ], [ %0, %18 ]
  ret ptr %.0
}